; Function Attrs: nounwind uwtable
define internal range(i32 -1, 2) i32 @compare_expanded_ranges(ptr noundef readonly captures(none) %0, ptr noundef readonly captures(none) %1, ptr noundef readonly captures(none) %2) #0 {
  %4 = load ptr, ptr %2, align 8
  %5 = getelementptr inbounds nuw i8, ptr %2, i64 8
  %6 = load i32, ptr %5, align 8
  %7 = load i64, ptr %0, align 8
  %8 = load i64, ptr %1, align 8
  %9 = tail call i64 @FunctionCall2Coll(ptr noundef %4, i32 noundef %6, i64 noundef %7, i64 noundef %8) #12
  %.not = icmp eq i64 %9, 0
  br i1 %.not, label %10, label %30

10:                                               ; preds = %3
  %11 = load ptr, ptr %2, align 8
  %12 = load i32, ptr %5, align 8
  %13 = load i64, ptr %1, align 8
  %14 = load i64, ptr %0, align 8
  %15 = tail call i64 @FunctionCall2Coll(ptr noundef %11, i32 noundef %12, i64 noundef %13, i64 noundef %14) #12
  %.not23 = icmp eq i64 %15, 0
  br i1 %.not23, label %16, label %30

16:                                               ; preds = %10
  %17 = load ptr, ptr %2, align 8
  %18 = load i32, ptr %5, align 8
  %19 = getelementptr inbounds nuw i8, ptr %0, i64 8
  %20 = load i64, ptr %19, align 8
  %21 = getelementptr inbounds nuw i8, ptr %1, i64 8
  %22 = load i64, ptr %21, align 8
  %23 = tail call i64 @FunctionCall2Coll(ptr noundef %17, i32 noundef %18, i64 noundef %20, i64 noundef %22) #12
  %.not24 = icmp eq i64 %23, 0
  br i1 %.not24, label %24, label %30

24:                                               ; preds = %16
  %25 = load ptr, ptr %2, align 8
  %26 = load i32, ptr %5, align 8
  %27 = load i64, ptr %21, align 8
  %28 = load i64, ptr %19, align 8
  %29 = tail call i64 @FunctionCall2Coll(ptr noundef %25, i32 noundef %26, i64 noundef %27, i64 noundef %28) #12
  %.not25 = icmp ne i64 %29, 0
  %. = zext i1 %.not25 to i32
  br label %30

30:                                               ; preds = %24, %16, %10, %3
  %.0 = phi i32 [ -1, %3 ], [ 1, %10 ], [ -1, %16 ], [ %., %24 ]
  ret i32 %.0
}